target datalayout = "e-m:e-p270:32:32-p271:32:32-p272:64:64-i64:64-i128:128-f80:128-n8:16:32:64-S128"
target triple = "x86_64-pc-linux-gnu"

@.str.8 = private unnamed_addr constant [32 x i8] c"Ruby:rb_yjit_reserve_addr_space\00", align 1
@.str.9 = private unnamed_addr constant [41 x i8] c"Ruby:rb_yjit_reserve_addr_space:fallback\00", align 1
@.str.10 = private unnamed_addr constant [18 x i8] c"ruby: yjit: mmap:\00", align 1
@.str.11 = private unnamed_addr constant [12 x i8] c"mmap failed\00", align 1

; Function Attrs: nounwind sspstrong uwtable
define internal ptr @align_ptr(ptr noundef %0, i32 noundef %1) #0 {
  %3 = alloca ptr, align 8
  %4 = alloca ptr, align 8
  %5 = alloca i32, align 4
  %6 = alloca i32, align 4
  %7 = alloca i32, align 4
  %8 = alloca i32, align 4
  store ptr %0, ptr %4, align 8, !tbaa !25
  store i32 %1, ptr %5, align 4, !tbaa !11
  call void @llvm.lifetime.start.p0(i64 4, ptr %6) #5
  %9 = load ptr, ptr %4, align 8, !tbaa !25
  %10 = ptrtoint ptr %9 to i64
  %11 = trunc i64 %10 to i32
  %12 = load i32, ptr %5, align 4, !tbaa !11
  %13 = urem i32 %11, %12
  store i32 %13, ptr %6, align 4, !tbaa !11
  %14 = load i32, ptr %6, align 4, !tbaa !11
  %15 = icmp eq i32 %14, 0
  br i1 %15, label %16, label %18

16:                                               ; preds = %2
  %17 = load ptr, ptr %4, align 8, !tbaa !25
  store ptr %17, ptr %3, align 8
  store i32 1, ptr %7, align 4
  br label %26

18:                                               ; preds = %2
  call void @llvm.lifetime.start.p0(i64 4, ptr %8) #5
  %19 = load i32, ptr %5, align 4, !tbaa !11
  %20 = load i32, ptr %6, align 4, !tbaa !11
  %21 = sub i32 %19, %20
  store i32 %21, ptr %8, align 4, !tbaa !11
  %22 = load ptr, ptr %4, align 8, !tbaa !25
  %23 = load i32, ptr %8, align 4, !tbaa !11
  %24 = zext i32 %23 to i64
  %25 = getelementptr i8, ptr %22, i64 %24
  store ptr %25, ptr %3, align 8
  store i32 1, ptr %7, align 4
  call void @llvm.lifetime.end.p0(i64 4, ptr %8) #5
  br label %26

26:                                               ; preds = %18, %16
  call void @llvm.lifetime.end.p0(i64 4, ptr %6) #5
  %27 = load ptr, ptr %3, align 8
  ret ptr %27
}

; Function Attrs: nounwind sspstrong uwtable
define hidden ptr @rb_yjit_reserve_addr_space(i32 noundef %0) #0 {
  %2 = alloca i32, align 4
  %3 = alloca ptr, align 8
  %4 = alloca i32, align 4
  %5 = alloca ptr, align 8
  %6 = alloca ptr, align 8
  %7 = alloca ptr, align 8
  store i32 %0, ptr %2, align 4, !tbaa !11
  call void @llvm.lifetime.start.p0(i64 8, ptr %3) #5
  call void @llvm.lifetime.start.p0(i64 4, ptr %4) #5
  %8 = call i64 @sysconf(i32 noundef 30) #5
  %9 = trunc i64 %8 to i32
  store i32 %9, ptr %4, align 4, !tbaa !11
  call void @llvm.lifetime.start.p0(i64 8, ptr %5) #5
  store ptr @rb_yjit_reserve_addr_space, ptr %5, align 8, !tbaa !25
  call void @llvm.lifetime.start.p0(i64 8, ptr %6) #5
  store ptr getelementptr (i8, ptr @rb_yjit_reserve_addr_space, i64 2147483647), ptr %6, align 8, !tbaa !25
  call void @llvm.lifetime.start.p0(i64 8, ptr %7) #5
  %10 = load i32, ptr %4, align 4, !tbaa !11
  %11 = call ptr @align_ptr(ptr noundef @rb_yjit_reserve_addr_space, i32 noundef %10)
  store ptr %11, ptr %7, align 8, !tbaa !25
  br label %12

12:                                               ; preds = %26, %1
  %13 = load ptr, ptr %7, align 8, !tbaa !25
  %14 = load i32, ptr %2, align 4, !tbaa !11
  %15 = zext i32 %14 to i64
  %16 = call ptr @mmap(ptr noundef %13, i64 noundef %15, i32 noundef 0, i32 noundef 1048610, i32 noundef -1, i64 noundef 0) #5
  store ptr %16, ptr %3, align 8, !tbaa !25
  %17 = load ptr, ptr %3, align 8, !tbaa !25
  %18 = icmp ne ptr %17, inttoptr (i64 -1 to ptr)
  br i1 %18, label %19, label %23

19:                                               ; preds = %12
  %20 = load ptr, ptr %3, align 8, !tbaa !25
  %21 = load i32, ptr %2, align 4, !tbaa !11
  %22 = zext i32 %21 to i64
  call void @ruby_annotate_mmap(ptr noundef %20, i64 noundef %22, ptr noundef @.str.8)
  br label %29

23:                                               ; preds = %12
  %24 = load ptr, ptr %7, align 8, !tbaa !25
  %25 = getelementptr i8, ptr %24, i64 -4194304
  store ptr %25, ptr %7, align 8, !tbaa !25
  br label %26

26:                                               ; preds = %23
  %27 = load ptr, ptr %7, align 8, !tbaa !25
  %28 = icmp ult ptr %27, getelementptr (i8, ptr @rb_yjit_reserve_addr_space, i64 2147483647)
  br i1 %28, label %12, label %29, !llvm.loop !28

29:                                               ; preds = %26, %19
  %30 = load ptr, ptr %3, align 8, !tbaa !25
  %31 = icmp eq ptr %30, inttoptr (i64 -1 to ptr)
  br i1 %31, label %32, label %43

32:                                               ; preds = %29
  %33 = load i32, ptr %2, align 4, !tbaa !11
  %34 = zext i32 %33 to i64
  %35 = call ptr @mmap(ptr noundef null, i64 noundef %34, i32 noundef 0, i32 noundef 34, i32 noundef -1, i64 noundef 0) #5
  store ptr %35, ptr %3, align 8, !tbaa !25
  %36 = load ptr, ptr %3, align 8, !tbaa !25
  %37 = icmp ne ptr %36, inttoptr (i64 -1 to ptr)
  br i1 %37, label %38, label %42

38:                                               ; preds = %32
  %39 = load ptr, ptr %3, align 8, !tbaa !25
  %40 = load i32, ptr %2, align 4, !tbaa !11
  %41 = zext i32 %40 to i64
  call void @ruby_annotate_mmap(ptr noundef %39, i64 noundef %41, ptr noundef @.str.9)
  br label %42

42:                                               ; preds = %38, %32
  br label %43

43:                                               ; preds = %42, %29
  %44 = load ptr, ptr %3, align 8, !tbaa !25
  %45 = icmp eq ptr %44, inttoptr (i64 -1 to ptr)
  br i1 %45, label %46, label %52

46:                                               ; preds = %43
  call void @perror(ptr noundef @.str.10)
  %47 = call ptr @rb_errno_ptr()
  %48 = load i32, ptr %47, align 4, !tbaa !11
  %49 = icmp eq i32 %48, 12
  br i1 %49, label %50, label %51

50:                                               ; preds = %46
  call void @exit(i32 noundef 1) #28
  unreachable

51:                                               ; preds = %46
  call void (ptr, ...) @rb_bug(ptr noundef @.str.11) #24
  unreachable

52:                                               ; preds = %43
  %53 = load ptr, ptr %3, align 8, !tbaa !25
  call void @llvm.lifetime.end.p0(i64 8, ptr %7) #5
  call void @llvm.lifetime.end.p0(i64 8, ptr %6) #5
  call void @llvm.lifetime.end.p0(i64 8, ptr %5) #5
  call void @llvm.lifetime.end.p0(i64 4, ptr %4) #5
  call void @llvm.lifetime.end.p0(i64 8, ptr %3) #5
  ret ptr %53
}