; Function Attrs: nounwind sspstrong uwtable
define hidden ptr @rb_yjit_reserve_addr_space(i32 noundef %0) #0 {
  %2 = tail call i64 @sysconf(i32 noundef 30) #5
  %3 = trunc i64 %2 to i32
  %4 = urem i32 ptrtoint (ptr @rb_yjit_reserve_addr_space to i32), %3
  %5 = icmp eq i32 %4, 0
  %6 = sub i32 %3, %4
  %narrow.i = select i1 %5, i32 0, i32 %6
  %.0.idx.i = zext i32 %narrow.i to i64
  %.0.i = getelementptr i8, ptr @rb_yjit_reserve_addr_space, i64 %.0.idx.i
  %7 = zext i32 %0 to i64
  br label %8

8:                                                ; preds = %10, %1
  %.0 = phi ptr [ %.0.i, %1 ], [ %11, %10 ]
  %9 = tail call ptr @mmap(ptr noundef %.0, i64 noundef %7, i32 noundef 0, i32 noundef 1048610, i32 noundef -1, i64 noundef 0) #5
  %.not = icmp eq ptr %9, inttoptr (i64 -1 to ptr)
  br i1 %.not, label %10, label %13

10:                                               ; preds = %8
  %11 = getelementptr i8, ptr %.0, i64 -4194304
  %12 = icmp ult ptr %11, getelementptr (i8, ptr @rb_yjit_reserve_addr_space, i64 2147483647)
  br i1 %12, label %8, label %14, !llvm.loop !20

13:                                               ; preds = %8
  tail call void @ruby_annotate_mmap(ptr noundef %9, i64 noundef %7, ptr noundef nonnull @.str.8) #5
  br label %23

14:                                               ; preds = %10
  %15 = tail call ptr @mmap(ptr noundef null, i64 noundef %7, i32 noundef 0, i32 noundef 34, i32 noundef -1, i64 noundef 0) #5
  %.not19 = icmp eq ptr %15, inttoptr (i64 -1 to ptr)
  br i1 %.not19, label %17, label %16

16:                                               ; preds = %14
  tail call void @ruby_annotate_mmap(ptr noundef %15, i64 noundef %7, ptr noundef nonnull @.str.9) #5
  br label %23

17:                                               ; preds = %14
  tail call void @perror(ptr noundef nonnull @.str.10) #25
  %18 = tail call ptr @rb_errno_ptr() #5
  %19 = load i32, ptr %18, align 4, !tbaa !7
  %20 = icmp eq i32 %19, 12
  br i1 %20, label %21, label %22

21:                                               ; preds = %17
  tail call void @exit(i32 noundef 1) #24
  unreachable

22:                                               ; preds = %17
  tail call void (ptr, ...) @rb_bug(ptr noundef nonnull @.str.11) #24
  unreachable

23:                                               ; preds = %16, %13
  %.014.ph = phi ptr [ %9, %13 ], [ %15, %16 ]
  ret ptr %.014.ph
}